Certificate:
    Data:
        Version: 3 (0x2)
        Serial Number: 14831573186931927189 (0xcdd4553b83492895)
    Signature Algorithm: sha1WithRSAEncryption
        Issuer: C=US, ST=Wisconsin, L=Madison, O=University of Wisconsin, OU=Certificate Authority, CN=boss.wisc.cloudlab.us/emailAddress=testbed-ops@wisc.cloudlab.us
        Validity
            Not Before: Jan 13 02:08:08 2015 GMT
            Not After : Apr  1 02:08:08 2023 GMT
        Subject: C=US, ST=Wisconsin, L=Madison, O=University of Wisconsin, OU=Certificate Authority, CN=boss.wisc.cloudlab.us/emailAddress=testbed-ops@wisc.cloudlab.us
        Subject Public Key Info:
            Public Key Algorithm: rsaEncryption
                Public-Key: (1024 bit)
                Modulus:
                    00:ce:b9:fd:7e:be:ce:3b:d4:82:c3:1a:c8:ca:67:
                    10:72:87:44:0e:ff:8d:9c:6e:4b:92:d8:ac:41:85:
                    f5:aa:46:21:dd:e8:47:21:0d:4d:16:e8:96:8a:82:
                    aa:7e:3b:a2:f8:2e:74:11:f2:1c:28:90:0e:7c:1b:
                    b2:8d:b5:e7:4e:58:e1:00:28:c0:75:d2:6f:6a:d2:
                    4f:c0:c8:28:f9:de:3b:b9:5d:99:e7:28:93:34:e1:
                    d1:df:a2:6a:48:4f:9f:c6:69:dd:0c:fa:5e:c1:ab:
                    0f:3e:84:0f:54:72:6f:cc:ef:d4:fd:9f:13:23:0e:
                    40:8d:cc:5c:2a:e0:3b:8b:19
                Exponent: 65537 (0x10001)
        X509v3 extensions:
            X509v3 Subject Key Identifier: 
                69:99:CB:F7:95:9B:0E:31:2A:23:BC:01:8E:50:8F:B9:79:9E:C6:C9
            X509v3 Authority Key Identifier: 
                keyid:69:99:CB:F7:95:9B:0E:31:2A:23:BC:01:8E:50:8F:B9:79:9E:C6:C9
                DirName:/C=US/ST=Wisconsin/L=Madison/O=University of Wisconsin/OU=Certificate Authority/CN=boss.wisc.cloudlab.us/emailAddress=testbed-ops@wisc.cloudlab.us
                serial:CD:D4:55:3B:83:49:28:95

            X509v3 Basic Constraints: 
                CA:TRUE
            X509v3 Subject Alternative Name: 
                URI:urn:publicid:IDN+wisc.cloudlab.us+authority+root
            X509v3 Issuer Alternative Name: 
                URI:urn:publicid:IDN+wisc.cloudlab.us+authority+root
    Signature Algorithm: sha1WithRSAEncryption
         7e:20:5c:dd:bb:7c:58:72:5a:ec:14:51:03:87:bd:30:d0:be:
         e7:ff:3d:79:46:aa:a1:43:b8:69:b8:87:10:cb:ef:1a:a3:4f:
         3f:59:d6:99:1a:07:2a:00:71:c4:d0:10:5c:93:3c:dd:9a:92:
         e0:0d:6c:d5:bd:20:96:19:a9:2e:19:fb:25:55:6b:9e:f1:0d:
         c7:49:a2:40:ae:a9:34:ec:89:51:27:ad:31:88:c1:03:d4:8d:
         f7:53:53:cb:4e:13:88:c5:5d:ab:d2:21:b4:48:08:18:64:8c:
         96:a9:fb:d3:7a:d8:f5:65:33:8d:e2:72:21:2f:df:8a:f3:48:
         d3:fe
-----BEGIN CERTIFICATE-----
MIIEqzCCBBSgAwIBAgIJAM3UVTuDSSiVMA0GCSqGSIb3DQEBBQUAMIHCMQswCQYD
VQQGEwJVUzESMBAGA1UECBMJV2lzY29uc2luMRAwDgYDVQQHEwdNYWRpc29uMSAw
HgYDVQQKExdVbml2ZXJzaXR5IG9mIFdpc2NvbnNpbjEeMBwGA1UECxMVQ2VydGlm
aWNhdGUgQXV0aG9yaXR5MR4wHAYDVQQDExVib3NzLndpc2MuY2xvdWRsYWIudXMx
KzApBgkqhkiG9w0BCQEWHHRlc3RiZWQtb3BzQHdpc2MuY2xvdWRsYWIudXMwHhcN
MTUwMTEzMDIwODA4WhcNMjMwNDAxMDIwODA4WjCBwjELMAkGA1UEBhMCVVMxEjAQ
BgNVBAgTCVdpc2NvbnNpbjEQMA4GA1UEBxMHTWFkaXNvbjEgMB4GA1UEChMXVW5p
dmVyc2l0eSBvZiBXaXNjb25zaW4xHjAcBgNVBAsTFUNlcnRpZmljYXRlIEF1dGhv
cml0eTEeMBwGA1UEAxMVYm9zcy53aXNjLmNsb3VkbGFiLnVzMSswKQYJKoZIhvcN
AQkBFhx0ZXN0YmVkLW9wc0B3aXNjLmNsb3VkbGFiLnVzMIGfMA0GCSqGSIb3DQEB
AQUAA4GNADCBiQKBgQDOuf1+vs471ILDGsjKZxByh0QO/42cbkuS2KxBhfWqRiHd
6EchDU0W6JaKgqp+O6L4LnQR8hwokA58G7KNtedOWOEAKMB10m9q0k/AyCj53ju5
XZnnKJM04dHfompIT5/Gad0M+l7Bqw8+hA9Ucm/M79T9nxMjDkCNzFwq4DuLGQID
AQABo4IBpTCCAaEwHQYDVR0OBBYEFGmZy/eVmw4xKiO8AY5Qj7l5nsbJMIH3BgNV
HSMEge8wgeyAFGmZy/eVmw4xKiO8AY5Qj7l5nsbJoYHIpIHFMIHCMQswCQYDVQQG
EwJVUzESMBAGA1UECBMJV2lzY29uc2luMRAwDgYDVQQHEwdNYWRpc29uMSAwHgYD
VQQKExdVbml2ZXJzaXR5IG9mIFdpc2NvbnNpbjEeMBwGA1UECxMVQ2VydGlmaWNh
dGUgQXV0aG9yaXR5MR4wHAYDVQQDExVib3NzLndpc2MuY2xvdWRsYWIudXMxKzAp
BgkqhkiG9w0BCQEWHHRlc3RiZWQtb3BzQHdpc2MuY2xvdWRsYWIudXOCCQDN1FU7
g0kolTAMBgNVHRMEBTADAQH/MDsGA1UdEQQ0MDKGMHVybjpwdWJsaWNpZDpJRE4r
d2lzYy5jbG91ZGxhYi51cythdXRob3JpdHkrcm9vdDA7BgNVHRIENDAyhjB1cm46
cHVibGljaWQ6SUROK3dpc2MuY2xvdWRsYWIudXMrYXV0aG9yaXR5K3Jvb3QwDQYJ
KoZIhvcNAQEFBQADgYEAfiBc3bt8WHJa7BRRA4e9MNC+5/89eUaqoUO4abiHEMvv
GqNPP1nWmRoHKgBxxNAQXJM83ZqS4A1s1b0glhmpLhn7JVVrnvENx0miQK6pNOyJ
USetMYjBA9SN91NTy04TiMVdq9IhtEgIGGSMlqn703rY9WUzjeJyIS/fivNI0/4=
-----END CERTIFICATE-----
